; Function Attrs: mustprogress uwtable
define noundef ptr @_Z16global_stat_initPK10t_inputrec(ptr noundef readonly captures(none) %0) local_unnamed_addr #0 {
  %2 = tail call noundef ptr @_Z11save_callocPKcS0_imm(ptr noundef nonnull @.str, ptr noundef nonnull @.str.1, i32 noundef 81, i64 noundef 1, i64 noundef 24)
  %3 = tail call noundef ptr @_Z6mk_binv()
  store ptr %3, ptr %2, align 8, !tbaa !4
  %4 = getelementptr inbounds nuw i8, ptr %2, i64 8
  %5 = getelementptr inbounds nuw i8, ptr %0, i64 744
  %6 = load i32, ptr %5, align 8, !tbaa !10
  %7 = sext i32 %6 to i64
  %8 = tail call noundef ptr @_Z11save_callocPKcS0_imm(ptr noundef nonnull @.str.2, ptr noundef nonnull @.str.1, i32 noundef 84, i64 noundef range(i64 -2147483648, 2147483648) %7, i64 noundef 4)
  store ptr %8, ptr %4, align 8, !tbaa !104
  %9 = getelementptr inbounds nuw i8, ptr %2, i64 16
  %10 = load i32, ptr %5, align 8, !tbaa !10
  %11 = sext i32 %10 to i64
  %12 = tail call noundef ptr @_Z11save_callocPKcS0_imm(ptr noundef nonnull @.str.3, ptr noundef nonnull @.str.1, i32 noundef 85, i64 noundef range(i64 -2147483648, 2147483648) %11, i64 noundef 4)
  store ptr %12, ptr %9, align 8, !tbaa !104
  ret ptr %2
}